target datalayout = "e-m:e-p270:32:32-p271:32:32-p272:64:64-i64:64-i128:128-f80:128-n8:16:32:64-S128"
target triple = "x86_64-pc-linux-gnu"

@hf_mpeg_descr_extension_tag_extension = internal global i32 0, align 4
@hf_mpeg_descr_extension_data = internal global i32 0, align 4
@hf_mpeg_descr_extension_supp_audio_mix_type = internal global i32 0, align 4
@hf_mpeg_descr_extension_supp_audio_ed_cla = internal global i32 0, align 4
@hf_mpeg_descr_extension_supp_audio_lang_code_present = internal global i32 0, align 4
@hf_mpeg_descr_extension_supp_audio_lang_code = internal global i32 0, align 4
@hf_mpeg_descr_private_data = internal global i32 0, align 4

; Function Attrs: null_pointer_is_valid sspstrong uwtable
define internal void @proto_mpeg_descriptor_dissect_extension(ptr noundef %0, i32 noundef %1, i32 noundef %2, ptr noundef %3) #1 {
  %5 = alloca ptr, align 8
  %6 = alloca i32, align 4
  %7 = alloca i32, align 4
  %8 = alloca ptr, align 8
  %9 = alloca i32, align 4
  %10 = alloca i8, align 1
  %11 = alloca i8, align 1
  %12 = alloca i32, align 4
  store ptr %0, ptr %5, align 8
  store i32 %1, ptr %6, align 4
  store i32 %2, ptr %7, align 4
  store ptr %3, ptr %8, align 8
  call void @llvm.lifetime.start.p0(i64 4, ptr %9) #4
  call void @llvm.lifetime.start.p0(i64 1, ptr %10) #4
  call void @llvm.lifetime.start.p0(i64 1, ptr %11) #4
  call void @llvm.lifetime.start.p0(i64 4, ptr %12) #4
  %13 = load i32, ptr %6, align 4
  store i32 %13, ptr %9, align 4
  %14 = load ptr, ptr %5, align 8
  %15 = load i32, ptr %6, align 4
  %16 = call zeroext i8 @tvb_get_uint8(ptr noundef %14, i32 noundef %15)
  store i8 %16, ptr %10, align 1
  %17 = load ptr, ptr %8, align 8
  %18 = load i32, ptr @hf_mpeg_descr_extension_tag_extension, align 4
  %19 = load ptr, ptr %5, align 8
  %20 = load i32, ptr %6, align 4
  %21 = call ptr @proto_tree_add_item(ptr noundef %17, i32 noundef %18, ptr noundef %19, i32 noundef %20, i32 noundef 1, i32 noundef 0)
  %22 = load i32, ptr %6, align 4
  %23 = add i32 %22, 1
  store i32 %23, ptr %6, align 4
  %24 = load i8, ptr %10, align 1
  %25 = zext i8 %24 to i32
  switch i32 %25, label %78 [
    i32 6, label %26
  ]

26:                                               ; preds = %4
  %27 = load ptr, ptr %8, align 8
  %28 = load i32, ptr @hf_mpeg_descr_extension_supp_audio_mix_type, align 4
  %29 = load ptr, ptr %5, align 8
  %30 = load i32, ptr %6, align 4
  %31 = call ptr @proto_tree_add_item(ptr noundef %27, i32 noundef %28, ptr noundef %29, i32 noundef %30, i32 noundef 1, i32 noundef 0)
  %32 = load ptr, ptr %8, align 8
  %33 = load i32, ptr @hf_mpeg_descr_extension_supp_audio_ed_cla, align 4
  %34 = load ptr, ptr %5, align 8
  %35 = load i32, ptr %6, align 4
  %36 = call ptr @proto_tree_add_item(ptr noundef %32, i32 noundef %33, ptr noundef %34, i32 noundef %35, i32 noundef 1, i32 noundef 0)
  %37 = load ptr, ptr %5, align 8
  %38 = load i32, ptr %6, align 4
  %39 = call zeroext i8 @tvb_get_uint8(ptr noundef %37, i32 noundef %38)
  %40 = zext i8 %39 to i32
  %41 = and i32 %40, 1
  %42 = icmp eq i32 %41, 1
  %43 = zext i1 %42 to i8
  store i8 %43, ptr %11, align 1
  %44 = load ptr, ptr %8, align 8
  %45 = load i32, ptr @hf_mpeg_descr_extension_supp_audio_lang_code_present, align 4
  %46 = load ptr, ptr %5, align 8
  %47 = load i32, ptr %6, align 4
  %48 = call ptr @proto_tree_add_item(ptr noundef %44, i32 noundef %45, ptr noundef %46, i32 noundef %47, i32 noundef 1, i32 noundef 0)
  %49 = load i32, ptr %6, align 4
  %50 = add i32 %49, 1
  store i32 %50, ptr %6, align 4
  %51 = load i8, ptr %11, align 1, !range !30, !noundef !31
  %52 = trunc i8 %51 to i1
  br i1 %52, label %53, label %61

53:                                               ; preds = %26
  %54 = load ptr, ptr %8, align 8
  %55 = load i32, ptr @hf_mpeg_descr_extension_supp_audio_lang_code, align 4
  %56 = load ptr, ptr %5, align 8
  %57 = load i32, ptr %6, align 4
  %58 = call ptr @proto_tree_add_item(ptr noundef %54, i32 noundef %55, ptr noundef %56, i32 noundef %57, i32 noundef 3, i32 noundef 0)
  %59 = load i32, ptr %6, align 4
  %60 = add i32 %59, 3
  store i32 %60, ptr %6, align 4
  br label %61

61:                                               ; preds = %53, %26
  %62 = load i32, ptr %6, align 4
  %63 = load i32, ptr %9, align 4
  %64 = sub i32 %62, %63
  store i32 %64, ptr %12, align 4
  %65 = load i32, ptr %12, align 4
  %66 = load i32, ptr %7, align 4
  %67 = icmp ult i32 %65, %66
  br i1 %67, label %68, label %77

68:                                               ; preds = %61
  %69 = load ptr, ptr %8, align 8
  %70 = load i32, ptr @hf_mpeg_descr_private_data, align 4
  %71 = load ptr, ptr %5, align 8
  %72 = load i32, ptr %6, align 4
  %73 = load i32, ptr %7, align 4
  %74 = load i32, ptr %12, align 4
  %75 = sub i32 %73, %74
  %76 = call ptr @proto_tree_add_item(ptr noundef %69, i32 noundef %70, ptr noundef %71, i32 noundef %72, i32 noundef %75, i32 noundef 0)
  br label %77

77:                                               ; preds = %68, %61
  br label %95

78:                                               ; preds = %4
  %79 = load i32, ptr %6, align 4
  %80 = load i32, ptr %9, align 4
  %81 = sub i32 %79, %80
  store i32 %81, ptr %12, align 4
  %82 = load i32, ptr %12, align 4
  %83 = load i32, ptr %7, align 4
  %84 = icmp ult i32 %82, %83
  br i1 %84, label %85, label %94

85:                                               ; preds = %78
  %86 = load ptr, ptr %8, align 8
  %87 = load i32, ptr @hf_mpeg_descr_extension_data, align 4
  %88 = load ptr, ptr %5, align 8
  %89 = load i32, ptr %6, align 4
  %90 = load i32, ptr %7, align 4
  %91 = load i32, ptr %12, align 4
  %92 = sub i32 %90, %91
  %93 = call ptr @proto_tree_add_item(ptr noundef %86, i32 noundef %87, ptr noundef %88, i32 noundef %89, i32 noundef %92, i32 noundef 0)
  br label %94

94:                                               ; preds = %85, %78
  br label %95

95:                                               ; preds = %94, %77
  call void @llvm.lifetime.end.p0(i64 4, ptr %12) #4
  call void @llvm.lifetime.end.p0(i64 1, ptr %11) #4
  call void @llvm.lifetime.end.p0(i64 1, ptr %10) #4
  call void @llvm.lifetime.end.p0(i64 4, ptr %9) #4
  ret void
}