; Function Attrs: null_pointer_is_valid sspstrong uwtable
define internal fastcc void @proto_mpeg_descriptor_dissect_extension(ptr noundef %0, i32 noundef %1, i32 noundef range(i32 1, 256) %2, ptr noundef %3) unnamed_addr #1 {
  %5 = tail call zeroext i8 @tvb_get_uint8(ptr noundef %0, i32 noundef %1)
  %6 = load i32, ptr @hf_mpeg_descr_extension_tag_extension, align 4
  %7 = tail call ptr @proto_tree_add_item(ptr noundef %3, i32 noundef %6, ptr noundef %0, i32 noundef %1, i32 noundef 1, i32 noundef 0)
  %8 = add i32 %1, 1
  %cond = icmp eq i8 %5, 6
  br i1 %cond, label %9, label %30

9:                                                ; preds = %4
  %10 = load i32, ptr @hf_mpeg_descr_extension_supp_audio_mix_type, align 4
  %11 = tail call ptr @proto_tree_add_item(ptr noundef %3, i32 noundef %10, ptr noundef %0, i32 noundef %8, i32 noundef 1, i32 noundef 0)
  %12 = load i32, ptr @hf_mpeg_descr_extension_supp_audio_ed_cla, align 4
  %13 = tail call ptr @proto_tree_add_item(ptr noundef %3, i32 noundef %12, ptr noundef %0, i32 noundef %8, i32 noundef 1, i32 noundef 0)
  %14 = tail call zeroext i8 @tvb_get_uint8(ptr noundef %0, i32 noundef %8)
  %15 = and i8 %14, 1
  %.not = icmp eq i8 %15, 0
  %16 = load i32, ptr @hf_mpeg_descr_extension_supp_audio_lang_code_present, align 4
  %17 = tail call ptr @proto_tree_add_item(ptr noundef %3, i32 noundef %16, ptr noundef %0, i32 noundef %8, i32 noundef 1, i32 noundef 0)
  %18 = add i32 %1, 2
  br i1 %.not, label %23, label %19

19:                                               ; preds = %9
  %20 = load i32, ptr @hf_mpeg_descr_extension_supp_audio_lang_code, align 4
  %21 = tail call ptr @proto_tree_add_item(ptr noundef %3, i32 noundef %20, ptr noundef %0, i32 noundef %18, i32 noundef 3, i32 noundef 0)
  %22 = add i32 %1, 5
  br label %23

23:                                               ; preds = %19, %9
  %.0 = phi i32 [ %22, %19 ], [ %18, %9 ]
  %24 = sub i32 %.0, %1
  %25 = icmp ult i32 %24, %2
  br i1 %25, label %26, label %36

26:                                               ; preds = %23
  %27 = load i32, ptr @hf_mpeg_descr_private_data, align 4
  %28 = sub nuw nsw i32 %2, %24
  %29 = tail call ptr @proto_tree_add_item(ptr noundef %3, i32 noundef %27, ptr noundef %0, i32 noundef %.0, i32 noundef %28, i32 noundef 0)
  br label %36

30:                                               ; preds = %4
  %31 = icmp samesign ugt i32 %2, 1
  br i1 %31, label %32, label %36

32:                                               ; preds = %30
  %33 = load i32, ptr @hf_mpeg_descr_extension_data, align 4
  %34 = add nsw i32 %2, -1
  %35 = tail call ptr @proto_tree_add_item(ptr noundef %3, i32 noundef %33, ptr noundef %0, i32 noundef %8, i32 noundef %34, i32 noundef 0)
  br label %36

36:                                               ; preds = %30, %32, %23, %26
  ret void
}